; Function Attrs: nounwind uwtable
define i32 @ff_mp4_read_descr_len(ptr noundef %0) local_unnamed_addr #5 {
  br label %2

2:                                                ; preds = %3, %1
  %.07 = phi i32 [ 4, %1 ], [ %4, %3 ]
  %.06 = phi i32 [ 0, %1 ], [ %8, %3 ]
  %.not = icmp eq i32 %.07, 0
  br i1 %.not, label %10, label %3

3:                                                ; preds = %2
  %4 = add nsw i32 %.07, -1
  %5 = tail call i32 @avio_r8(ptr noundef %0) #8
  %6 = shl i32 %.06, 7
  %7 = and i32 %5, 127
  %8 = or disjoint i32 %7, %6
  %9 = and i32 %5, 128
  %.not8 = icmp eq i32 %9, 0
  br i1 %.not8, label %10, label %2

10:                                               ; preds = %3, %2
  %.1 = phi i32 [ %8, %3 ], [ %.06, %2 ]
  ret i32 %.1
}